; Function Attrs: nounwind uwtable
define ptr @l_Std_DHashMap_Internal_AssocList_getD___at_Lean_Meta_LazyDiscrTree_dropKeyAux___spec__1___boxed(ptr noundef %0, ptr noundef %1, ptr noundef %2) local_unnamed_addr #1 {
  br label %lean_inc.exit.i

lean_inc.exit.i:                                  ; preds = %22, %3
  %.014.i = phi ptr [ %2, %3 ], [ %28, %22 ]
  %4 = ptrtoint ptr %.014.i to i64
  %5 = and i64 %4, 1
  %.not.i.i = icmp eq i64 %5, 0
  br i1 %.not.i.i, label %9, label %6

6:                                                ; preds = %lean_inc.exit.i
  %7 = lshr i64 %4, 1
  %8 = trunc i64 %7 to i32
  br label %lean_obj_tag.exit.i

9:                                                ; preds = %lean_inc.exit.i
  %10 = getelementptr i8, ptr %.014.i, i64 4
  %.val.i.i = load i32, ptr %10, align 4
  %11 = lshr i32 %.val.i.i, 24
  br label %lean_obj_tag.exit.i

lean_obj_tag.exit.i:                              ; preds = %9, %6
  %.0.i.i = phi i32 [ %8, %6 ], [ %11, %9 ]
  %12 = icmp eq i32 %.0.i.i, 0
  br i1 %12, label %13, label %22

13:                                               ; preds = %lean_obj_tag.exit.i
  %14 = ptrtoint ptr %1 to i64
  %15 = and i64 %14, 1
  %.not27.i = icmp eq i64 %15, 0
  br i1 %.not27.i, label %16, label %l_Std_DHashMap_Internal_AssocList_getD___at_Lean_Meta_LazyDiscrTree_dropKeyAux___spec__1.exit

16:                                               ; preds = %13
  %.val.i17.i = load i32, ptr %1, align 4, !tbaa !8
  %17 = icmp sgt i32 %.val.i17.i, 0
  br i1 %17, label %18, label %20, !prof !11

18:                                               ; preds = %16
  %19 = add nuw i32 %.val.i17.i, 1
  store i32 %19, ptr %1, align 4, !tbaa !8
  br label %l_Std_DHashMap_Internal_AssocList_getD___at_Lean_Meta_LazyDiscrTree_dropKeyAux___spec__1.exit

20:                                               ; preds = %16
  %.not.i18.i = icmp eq i32 %.val.i17.i, 0
  br i1 %.not.i18.i, label %l_Std_DHashMap_Internal_AssocList_getD___at_Lean_Meta_LazyDiscrTree_dropKeyAux___spec__1.exit, label %21

21:                                               ; preds = %20
  tail call void @lean_inc_ref_cold(ptr noundef nonnull %1) #6
  br label %l_Std_DHashMap_Internal_AssocList_getD___at_Lean_Meta_LazyDiscrTree_dropKeyAux___spec__1.exit

22:                                               ; preds = %lean_obj_tag.exit.i
  %23 = getelementptr inbounds nuw i8, ptr %.014.i, i64 8
  %24 = load ptr, ptr %23, align 8, !tbaa !4
  %25 = getelementptr inbounds nuw i8, ptr %.014.i, i64 16
  %26 = load ptr, ptr %25, align 8, !tbaa !4
  %27 = getelementptr inbounds nuw i8, ptr %.014.i, i64 24
  %28 = load ptr, ptr %27, align 8, !tbaa !4
  %29 = tail call zeroext i8 @l_Lean_Meta_LazyDiscrTree_beqKey____x40_Lean_Meta_LazyDiscrTree___hyg_101_(ptr noundef %24, ptr noundef %0)
  %30 = icmp eq i8 %29, 0
  br i1 %30, label %lean_inc.exit.i, label %31

31:                                               ; preds = %22
  %32 = ptrtoint ptr %26 to i64
  %33 = and i64 %32, 1
  %.not.i13 = icmp eq i64 %33, 0
  br i1 %.not.i13, label %34, label %l_Std_DHashMap_Internal_AssocList_getD___at_Lean_Meta_LazyDiscrTree_dropKeyAux___spec__1.exit

34:                                               ; preds = %31
  %.val.i19.i = load i32, ptr %26, align 4, !tbaa !8
  %35 = icmp sgt i32 %.val.i19.i, 0
  br i1 %35, label %36, label %38, !prof !11

36:                                               ; preds = %34
  %37 = add nuw i32 %.val.i19.i, 1
  store i32 %37, ptr %26, align 4, !tbaa !8
  br label %l_Std_DHashMap_Internal_AssocList_getD___at_Lean_Meta_LazyDiscrTree_dropKeyAux___spec__1.exit

38:                                               ; preds = %34
  %.not.i20.i = icmp eq i32 %.val.i19.i, 0
  br i1 %.not.i20.i, label %l_Std_DHashMap_Internal_AssocList_getD___at_Lean_Meta_LazyDiscrTree_dropKeyAux___spec__1.exit, label %39

39:                                               ; preds = %38
  tail call void @lean_inc_ref_cold(ptr noundef nonnull %26) #6
  br label %l_Std_DHashMap_Internal_AssocList_getD___at_Lean_Meta_LazyDiscrTree_dropKeyAux___spec__1.exit

l_Std_DHashMap_Internal_AssocList_getD___at_Lean_Meta_LazyDiscrTree_dropKeyAux___spec__1.exit: ; preds = %13, %18, %20, %21, %31, %36, %38, %39
  %.1.i = phi ptr [ %1, %21 ], [ %1, %20 ], [ %1, %18 ], [ %1, %13 ], [ %26, %39 ], [ %26, %38 ], [ %26, %36 ], [ %26, %31 ]
  %40 = ptrtoint ptr %2 to i64
  %41 = and i64 %40, 1
  %.not = icmp eq i64 %41, 0
  br i1 %.not, label %42, label %lean_dec.exit8

42:                                               ; preds = %l_Std_DHashMap_Internal_AssocList_getD___at_Lean_Meta_LazyDiscrTree_dropKeyAux___spec__1.exit
  %43 = load i32, ptr %2, align 4, !tbaa !8
  %44 = icmp sgt i32 %43, 1
  br i1 %44, label %45, label %47, !prof !11

45:                                               ; preds = %42
  %46 = add nsw i32 %43, -1
  store i32 %46, ptr %2, align 4, !tbaa !8
  br label %lean_dec.exit8

47:                                               ; preds = %42
  %.not.i = icmp eq i32 %43, 0
  br i1 %.not.i, label %lean_dec.exit8, label %48

48:                                               ; preds = %47
  tail call void @lean_dec_ref_cold(ptr noundef nonnull %2) #6
  br label %lean_dec.exit8

lean_dec.exit8:                                   ; preds = %48, %47, %45, %l_Std_DHashMap_Internal_AssocList_getD___at_Lean_Meta_LazyDiscrTree_dropKeyAux___spec__1.exit
  %49 = ptrtoint ptr %1 to i64
  %50 = and i64 %49, 1
  %.not14 = icmp eq i64 %50, 0
  br i1 %.not14, label %51, label %lean_dec.exit7

51:                                               ; preds = %lean_dec.exit8
  %52 = load i32, ptr %1, align 4, !tbaa !8
  %53 = icmp sgt i32 %52, 1
  br i1 %53, label %54, label %56, !prof !11

54:                                               ; preds = %51
  %55 = add nsw i32 %52, -1
  store i32 %55, ptr %1, align 4, !tbaa !8
  br label %lean_dec.exit7

56:                                               ; preds = %51
  %.not.i9 = icmp eq i32 %52, 0
  br i1 %.not.i9, label %lean_dec.exit7, label %57

57:                                               ; preds = %56
  tail call void @lean_dec_ref_cold(ptr noundef nonnull %1) #6
  br label %lean_dec.exit7

lean_dec.exit7:                                   ; preds = %57, %56, %54, %lean_dec.exit8
  %58 = ptrtoint ptr %0 to i64
  %59 = and i64 %58, 1
  %.not15 = icmp eq i64 %59, 0
  br i1 %.not15, label %60, label %lean_dec.exit

60:                                               ; preds = %lean_dec.exit7
  %61 = load i32, ptr %0, align 4, !tbaa !8
  %62 = icmp sgt i32 %61, 1
  br i1 %62, label %63, label %65, !prof !11

63:                                               ; preds = %60
  %64 = add nsw i32 %61, -1
  store i32 %64, ptr %0, align 4, !tbaa !8
  br label %lean_dec.exit

65:                                               ; preds = %60
  %.not.i11 = icmp eq i32 %61, 0
  br i1 %.not.i11, label %lean_dec.exit, label %66

66:                                               ; preds = %65
  tail call void @lean_dec_ref_cold(ptr noundef nonnull %0) #6
  br label %lean_dec.exit

lean_dec.exit:                                    ; preds = %66, %65, %63, %lean_dec.exit7
  ret ptr %.1.i
}